target datalayout = "e-m:e-p270:32:32-p271:32:32-p272:64:64-i64:64-i128:128-f80:128-n8:16:32:64-S128"
target triple = "x86_64-unknown-linux-gnu"

%"class.sat::literal" = type { i32 }
%"class.sat::drat" = type { ptr, %class.svector, ptr, %"class.sat::clause_allocator", ptr, ptr, %class.svector.5, %class.svector.7, %class.vector.9, %class.svector.10, i8, i8, i8, i8, i8, %"struct.sat::drat::stats" }
%class.svector = type { %class.vector }
%class.vector = type { ptr }
%"class.sat::clause_allocator" = type { %class.sat_allocator, %class.id_gen }
%class.sat_allocator = type { ptr, i64, %class.ptr_vector, ptr, [65 x %class.ptr_vector.1] }
%class.ptr_vector = type { %class.vector.0 }
%class.vector.0 = type { ptr }
%class.ptr_vector.1 = type { %class.vector.2 }
%class.vector.2 = type { ptr }
%class.id_gen = type { i32, %class.svector.3 }
%class.svector.3 = type { %class.vector.4 }
%class.vector.4 = type { ptr }
%class.svector.5 = type { %class.vector.6 }
%class.vector.6 = type { ptr }
%class.svector.7 = type { %class.vector.8 }
%class.vector.8 = type { ptr }
%class.vector.9 = type { ptr }
%class.svector.10 = type { %class.vector.11 }
%class.vector.11 = type { ptr }
%"struct.sat::drat::stats" = type { i32, i32, i32, i32 }
%class.svector.26 = type { %class.vector.27 }
%class.vector.27 = type { ptr }

@.str.5 = private unnamed_addr constant [104 x i8] c"generated/home/dtcxzyw/WorkSpace/Projects/compilers/llvm-opt-benchmark/bench/z3/z3/src/sat/sat_drat.cpp\00", align 1
@.str.7 = private unnamed_addr constant [17 x i8] c"Verification of \00", align 1
@.str.8 = private unnamed_addr constant [9 x i8] c" failed\0A\00", align 1
@.str.9 = private unnamed_addr constant [29 x i8] c"UNEXPECTED CODE WAS REACHED.\00", align 1

; Function Attrs: mustprogress nounwind uwtable
define hidden noundef zeroext i1 @_ZN3sat4drat7is_dratEjPKNS_7literalE(ptr noundef nonnull align 8 dereferenceable(664) %this, i32 noundef %n, ptr noundef %c) #4 align 2 {
entry:
  %this.addr = alloca ptr, align 8
  %n.addr = alloca i32, align 4
  %c.addr = alloca ptr, align 8
  store ptr %this, ptr %this.addr, align 8
  store i32 %n, ptr %n.addr, align 4
  store ptr %c, ptr %c.addr, align 8
  ret i1 false
}

; Function Attrs: mustprogress uwtable
define hidden void @_ZN3sat4drat6verifyEjPKNS_7literalE(ptr noundef nonnull align 8 dereferenceable(664) %this, i32 noundef %n, ptr noundef %c) #5 align 2 personality ptr @__gxx_personality_v0 {
entry:
  %this.addr = alloca ptr, align 8
  %n.addr = alloca i32, align 4
  %c.addr = alloca ptr, align 8
  %i = alloca i32, align 4
  %agg.tmp = alloca %"class.sat::literal", align 4
  %lits = alloca %class.svector.26, align 8
  %exn.slot = alloca ptr, align 8
  %ehselector.slot = alloca i32, align 4
  store ptr %this, ptr %this.addr, align 8
  store i32 %n, ptr %n.addr, align 4
  store ptr %c, ptr %c.addr, align 8
  %this1 = load ptr, ptr %this.addr, align 8
  %m_check_unsat = getelementptr inbounds %"class.sat::drat", ptr %this1, i32 0, i32 11
  %0 = load i8, ptr %m_check_unsat, align 1
  %tobool = trunc i8 %0 to i1
  br i1 %tobool, label %if.end, label %if.then

if.then:                                          ; preds = %entry
  br label %return

if.end:                                           ; preds = %entry
  %m_inconsistent = getelementptr inbounds %"class.sat::drat", ptr %this1, i32 0, i32 10
  %1 = load i8, ptr %m_inconsistent, align 8
  %tobool2 = trunc i8 %1 to i1
  br i1 %tobool2, label %if.then3, label %if.end4

if.then3:                                         ; preds = %if.end
  br label %return

if.end4:                                          ; preds = %if.end
  store i32 0, ptr %i, align 4
  br label %for.cond

for.cond:                                         ; preds = %for.inc, %if.end4
  %2 = load i32, ptr %i, align 4
  %3 = load i32, ptr %n.addr, align 4
  %cmp = icmp ult i32 %2, %3
  br i1 %cmp, label %for.body, label %for.end

for.body:                                         ; preds = %for.cond
  %4 = load ptr, ptr %c.addr, align 8
  %5 = load i32, ptr %i, align 4
  %idxprom = zext i32 %5 to i64
  %arrayidx = getelementptr inbounds %"class.sat::literal", ptr %4, i64 %idxprom
  call void @llvm.memcpy.p0.p0.i64(ptr align 4 %agg.tmp, ptr align 4 %arrayidx, i64 4, i1 false)
  %coerce.dive = getelementptr inbounds %"class.sat::literal", ptr %agg.tmp, i32 0, i32 0
  %6 = load i32, ptr %coerce.dive, align 4
  call void @_ZN3sat4drat7declareENS_7literalE(ptr noundef nonnull align 8 dereferenceable(664) %this1, i32 %6)
  br label %for.inc

for.inc:                                          ; preds = %for.body
  %7 = load i32, ptr %i, align 4
  %inc = add i32 %7, 1
  store i32 %inc, ptr %i, align 4
  br label %for.cond, !llvm.loop !13

for.end:                                          ; preds = %for.cond
  %8 = load i32, ptr %n.addr, align 4
  %9 = load ptr, ptr %c.addr, align 8
  %call = call noundef zeroext i1 @_ZN3sat4drat7is_drupEjPKNS_7literalE(ptr noundef nonnull align 8 dereferenceable(664) %this1, i32 noundef %8, ptr noundef %9)
  br i1 %call, label %if.then5, label %if.end7

if.then5:                                         ; preds = %for.end
  %m_stats = getelementptr inbounds %"class.sat::drat", ptr %this1, i32 0, i32 15
  %m_num_drup = getelementptr inbounds %"struct.sat::drat::stats", ptr %m_stats, i32 0, i32 0
  %10 = load i32, ptr %m_num_drup, align 8
  %inc6 = add i32 %10, 1
  store i32 %inc6, ptr %m_num_drup, align 8
  br label %return

if.end7:                                          ; preds = %for.end
  %11 = load i32, ptr %n.addr, align 4
  %12 = load ptr, ptr %c.addr, align 8
  %call8 = call noundef zeroext i1 @_ZN3sat4drat7is_dratEjPKNS_7literalE(ptr noundef nonnull align 8 dereferenceable(664) %this1, i32 noundef %11, ptr noundef %12)
  br i1 %call8, label %if.then9, label %if.end12

if.then9:                                         ; preds = %if.end7
  %m_stats10 = getelementptr inbounds %"class.sat::drat", ptr %this1, i32 0, i32 15
  %m_num_drat = getelementptr inbounds %"struct.sat::drat::stats", ptr %m_stats10, i32 0, i32 1
  %13 = load i32, ptr %m_num_drat, align 4
  %inc11 = add i32 %13, 1
  store i32 %inc11, ptr %m_num_drat, align 4
  br label %return

if.end12:                                         ; preds = %if.end7
  %14 = load i32, ptr %n.addr, align 4
  %15 = load ptr, ptr %c.addr, align 8
  call void @_ZN7svectorIN3sat7literalEjEC2EjPKS1_(ptr noundef nonnull align 8 dereferenceable(8) %lits, i32 noundef %14, ptr noundef %15)
  %call13 = invoke noundef i32 @_Z19get_verbosity_levelv()
          to label %invoke.cont unwind label %lpad

invoke.cont:                                      ; preds = %if.end12
  %cmp14 = icmp uge i32 %call13, 0
  br i1 %cmp14, label %if.then15, label %if.end38

if.then15:                                        ; preds = %invoke.cont
  %call17 = invoke noundef zeroext i1 @_Z11is_threadedv()
          to label %invoke.cont16 unwind label %lpad

invoke.cont16:                                    ; preds = %if.then15
  br i1 %call17, label %if.then18, label %if.else

if.then18:                                        ; preds = %invoke.cont16
  invoke void @_Z12verbose_lockv()
          to label %invoke.cont19 unwind label %lpad

invoke.cont19:                                    ; preds = %if.then18
  %call21 = invoke noundef nonnull align 8 dereferenceable(8) ptr @_Z14verbose_streamv()
          to label %invoke.cont20 unwind label %lpad

invoke.cont20:                                    ; preds = %invoke.cont19
  %call23 = invoke noundef nonnull align 8 dereferenceable(8) ptr @_ZStlsISt11char_traitsIcEERSt13basic_ostreamIcT_ES5_PKc(ptr noundef nonnull align 8 dereferenceable(8) %call21, ptr noundef @.str.7)
          to label %invoke.cont22 unwind label %lpad

invoke.cont22:                                    ; preds = %invoke.cont20
  %call25 = invoke noundef nonnull align 8 dereferenceable(8) ptr @_ZN3satlsERSoRK7svectorINS_7literalEjE(ptr noundef nonnull align 8 dereferenceable(8) %call23, ptr noundef nonnull align 8 dereferenceable(8) %lits)
          to label %invoke.cont24 unwind label %lpad

invoke.cont24:                                    ; preds = %invoke.cont22
  %call27 = invoke noundef nonnull align 8 dereferenceable(8) ptr @_ZStlsISt11char_traitsIcEERSt13basic_ostreamIcT_ES5_PKc(ptr noundef nonnull align 8 dereferenceable(8) %call25, ptr noundef @.str.8)
          to label %invoke.cont26 unwind label %lpad

invoke.cont26:                                    ; preds = %invoke.cont24
  invoke void @_Z14verbose_unlockv()
          to label %invoke.cont28 unwind label %lpad

invoke.cont28:                                    ; preds = %invoke.cont26
  br label %if.end37

lpad:                                             ; preds = %if.end38, %invoke.cont33, %invoke.cont31, %invoke.cont29, %if.else, %invoke.cont26, %invoke.cont24, %invoke.cont22, %invoke.cont20, %invoke.cont19, %if.then18, %if.then15, %if.end12
  %16 = landingpad { ptr, i32 }
          cleanup
  %17 = extractvalue { ptr, i32 } %16, 0
  store ptr %17, ptr %exn.slot, align 8
  %18 = extractvalue { ptr, i32 } %16, 1
  store i32 %18, ptr %ehselector.slot, align 4
  call void @_ZN7svectorIN3sat7literalEjED2Ev(ptr noundef nonnull align 8 dereferenceable(8) %lits) #3
  br label %eh.resume

if.else:                                          ; preds = %invoke.cont16
  %call30 = invoke noundef nonnull align 8 dereferenceable(8) ptr @_Z14verbose_streamv()
          to label %invoke.cont29 unwind label %lpad

invoke.cont29:                                    ; preds = %if.else
  %call32 = invoke noundef nonnull align 8 dereferenceable(8) ptr @_ZStlsISt11char_traitsIcEERSt13basic_ostreamIcT_ES5_PKc(ptr noundef nonnull align 8 dereferenceable(8) %call30, ptr noundef @.str.7)
          to label %invoke.cont31 unwind label %lpad

invoke.cont31:                                    ; preds = %invoke.cont29
  %call34 = invoke noundef nonnull align 8 dereferenceable(8) ptr @_ZN3satlsERSoRK7svectorINS_7literalEjE(ptr noundef nonnull align 8 dereferenceable(8) %call32, ptr noundef nonnull align 8 dereferenceable(8) %lits)
          to label %invoke.cont33 unwind label %lpad

invoke.cont33:                                    ; preds = %invoke.cont31
  %call36 = invoke noundef nonnull align 8 dereferenceable(8) ptr @_ZStlsISt11char_traitsIcEERSt13basic_ostreamIcT_ES5_PKc(ptr noundef nonnull align 8 dereferenceable(8) %call34, ptr noundef @.str.8)
          to label %invoke.cont35 unwind label %lpad

invoke.cont35:                                    ; preds = %invoke.cont33
  br label %if.end37

if.end37:                                         ; preds = %invoke.cont35, %invoke.cont28
  br label %if.end38

if.end38:                                         ; preds = %if.end37, %invoke.cont
  invoke void @_Z26notify_assertion_violationPKciS0_(ptr noundef @.str.5, i32 noundef 421, ptr noundef @.str.9)
          to label %invoke.cont39 unwind label %lpad

invoke.cont39:                                    ; preds = %if.end38
  call void @exit(i32 noundef 114) #13
  unreachable

return:                                           ; preds = %if.then9, %if.then5, %if.then3, %if.then
  ret void

eh.resume:                                        ; preds = %lpad
  %exn = load ptr, ptr %exn.slot, align 8
  %sel = load i32, ptr %ehselector.slot, align 4
  %lpad.val = insertvalue { ptr, i32 } poison, ptr %exn, 0
  %lpad.val40 = insertvalue { ptr, i32 } %lpad.val, i32 %sel, 1
  resume { ptr, i32 } %lpad.val40
}