; Function Attrs: mustprogress uwtable
define hidden void @_ZN3sat4drat6verifyEjPKNS_7literalE(ptr noundef nonnull align 8 dereferenceable(664) %this, i32 noundef %n, ptr noundef %c) local_unnamed_addr #3 align 2 personality ptr @__gxx_personality_v0 {
entry:
  %lits = alloca %class.svector.26, align 8
  %m_check_unsat = getelementptr inbounds i8, ptr %this, i64 641
  %0 = load i8, ptr %m_check_unsat, align 1
  %1 = and i8 %0, 1
  %tobool.not = icmp eq i8 %1, 0
  br i1 %tobool.not, label %return, label %if.end

if.end:                                           ; preds = %entry
  %m_inconsistent = getelementptr inbounds i8, ptr %this, i64 640
  %2 = load i8, ptr %m_inconsistent, align 8
  %3 = and i8 %2, 1
  %tobool2.not = icmp eq i8 %3, 0
  br i1 %tobool2.not, label %for.cond.preheader, label %return

for.cond.preheader:                               ; preds = %if.end
  %cmp9.not = icmp eq i32 %n, 0
  br i1 %cmp9.not, label %for.end, label %for.body.preheader

for.body.preheader:                               ; preds = %for.cond.preheader
  %wide.trip.count = zext i32 %n to i64
  br label %for.body

for.body:                                         ; preds = %for.body.preheader, %for.body
  %indvars.iv = phi i64 [ 0, %for.body.preheader ], [ %indvars.iv.next, %for.body ]
  %arrayidx = getelementptr inbounds %"class.sat::literal", ptr %c, i64 %indvars.iv
  %agg.tmp.sroa.0.0.copyload = load i32, ptr %arrayidx, align 4
  tail call void @_ZN3sat4drat7declareENS_7literalE(ptr noundef nonnull align 8 dereferenceable(664) %this, i32 %agg.tmp.sroa.0.0.copyload)
  %indvars.iv.next = add nuw nsw i64 %indvars.iv, 1
  %exitcond.not = icmp eq i64 %indvars.iv.next, %wide.trip.count
  br i1 %exitcond.not, label %for.end, label %for.body, !llvm.loop !15

for.end:                                          ; preds = %for.body, %for.cond.preheader
  %call = tail call noundef zeroext i1 @_ZN3sat4drat7is_drupEjPKNS_7literalE(ptr noundef nonnull align 8 dereferenceable(664) %this, i32 noundef %n, ptr noundef %c)
  br i1 %call, label %if.then5, label %if.end7

if.then5:                                         ; preds = %for.end
  %m_stats = getelementptr inbounds i8, ptr %this, i64 648
  %4 = load i32, ptr %m_stats, align 8
  %inc6 = add i32 %4, 1
  store i32 %inc6, ptr %m_stats, align 8
  br label %return

if.end7:                                          ; preds = %for.end
  call void @_ZN7svectorIN3sat7literalEjEC2EjPKS1_(ptr noundef nonnull align 8 dereferenceable(8) %lits, i32 noundef %n, ptr noundef %c)
  %call13 = invoke noundef i32 @_Z19get_verbosity_levelv()
          to label %if.then15 unwind label %lpad

if.then15:                                        ; preds = %if.end7
  %call17 = invoke noundef zeroext i1 @_Z11is_threadedv()
          to label %invoke.cont16 unwind label %lpad

invoke.cont16:                                    ; preds = %if.then15
  br i1 %call17, label %if.then18, label %if.else

if.then18:                                        ; preds = %invoke.cont16
  invoke void @_Z12verbose_lockv()
          to label %invoke.cont19 unwind label %lpad

invoke.cont19:                                    ; preds = %if.then18
  %call21 = invoke noundef nonnull align 8 dereferenceable(8) ptr @_Z14verbose_streamv()
          to label %invoke.cont20 unwind label %lpad

invoke.cont20:                                    ; preds = %invoke.cont19
  %call23 = invoke noundef nonnull align 8 dereferenceable(8) ptr @_ZStlsISt11char_traitsIcEERSt13basic_ostreamIcT_ES5_PKc(ptr noundef nonnull align 8 dereferenceable(8) %call21, ptr noundef nonnull @.str.7)
          to label %invoke.cont22 unwind label %lpad

invoke.cont22:                                    ; preds = %invoke.cont20
  %call25 = invoke noundef nonnull align 8 dereferenceable(8) ptr @_ZN3satlsERSoRK7svectorINS_7literalEjE(ptr noundef nonnull align 8 dereferenceable(8) %call23, ptr noundef nonnull align 8 dereferenceable(8) %lits)
          to label %invoke.cont24 unwind label %lpad

invoke.cont24:                                    ; preds = %invoke.cont22
  %call27 = invoke noundef nonnull align 8 dereferenceable(8) ptr @_ZStlsISt11char_traitsIcEERSt13basic_ostreamIcT_ES5_PKc(ptr noundef nonnull align 8 dereferenceable(8) %call25, ptr noundef nonnull @.str.8)
          to label %invoke.cont26 unwind label %lpad

invoke.cont26:                                    ; preds = %invoke.cont24
  invoke void @_Z14verbose_unlockv()
          to label %if.end38 unwind label %lpad

lpad:                                             ; preds = %if.end38, %invoke.cont33, %invoke.cont31, %invoke.cont29, %if.else, %invoke.cont26, %invoke.cont24, %invoke.cont22, %invoke.cont20, %invoke.cont19, %if.then18, %if.then15, %if.end7
  %5 = landingpad { ptr, i32 }
          cleanup
  call void @_ZN7svectorIN3sat7literalEjED2Ev(ptr noundef nonnull align 8 dereferenceable(8) %lits) #19
  resume { ptr, i32 } %5

if.else:                                          ; preds = %invoke.cont16
  %call30 = invoke noundef nonnull align 8 dereferenceable(8) ptr @_Z14verbose_streamv()
          to label %invoke.cont29 unwind label %lpad

invoke.cont29:                                    ; preds = %if.else
  %call32 = invoke noundef nonnull align 8 dereferenceable(8) ptr @_ZStlsISt11char_traitsIcEERSt13basic_ostreamIcT_ES5_PKc(ptr noundef nonnull align 8 dereferenceable(8) %call30, ptr noundef nonnull @.str.7)
          to label %invoke.cont31 unwind label %lpad

invoke.cont31:                                    ; preds = %invoke.cont29
  %call34 = invoke noundef nonnull align 8 dereferenceable(8) ptr @_ZN3satlsERSoRK7svectorINS_7literalEjE(ptr noundef nonnull align 8 dereferenceable(8) %call32, ptr noundef nonnull align 8 dereferenceable(8) %lits)
          to label %invoke.cont33 unwind label %lpad

invoke.cont33:                                    ; preds = %invoke.cont31
  %call36 = invoke noundef nonnull align 8 dereferenceable(8) ptr @_ZStlsISt11char_traitsIcEERSt13basic_ostreamIcT_ES5_PKc(ptr noundef nonnull align 8 dereferenceable(8) %call34, ptr noundef nonnull @.str.8)
          to label %if.end38 unwind label %lpad

if.end38:                                         ; preds = %invoke.cont26, %invoke.cont33
  invoke void @_Z26notify_assertion_violationPKciS0_(ptr noundef nonnull @.str.5, i32 noundef 421, ptr noundef nonnull @.str.9)
          to label %invoke.cont39 unwind label %lpad

invoke.cont39:                                    ; preds = %if.end38
  call void @exit(i32 noundef 114) #20
  unreachable

return:                                           ; preds = %if.end, %entry, %if.then5
  ret void
}